(dp0
I38
I1
sI39
I3
sI40
I7
sI41
I8
sI42
I12
sI43
I31
sI44
I38
sI45
I60
sI46
I49
sI47
I60
sI48
I76
sI49
I65
sI50
I66
sI51
I55
sI52
I85
sI53
I54
sI54
I45
sI55
I58
sI56
I28
sI57
I26
sI58
I22
sI59
I21
sI60
I13
sI61
I16
sI62
I13
sI63
I12
sI64
I12
sI65
I8
sI66
I6
sI67
I8
sI68
I13
sI69
I7
sI70
I3
sI71
I7
sI72
I4
sI73
I2
sI77
I1
sI79
I2
sI82
I1
sI85
I1
sI89
I1
s.